; Function Attrs: nounwind uwtable
define void @Pdr_ManCollectValues(ptr noundef %0, i32 noundef %1, ptr noundef readonly captures(none) %2, ptr noundef captures(none) initializes((4, 8)) %3) local_unnamed_addr #0 {
  %5 = getelementptr inbounds nuw i8, ptr %3, i64 4
  store i32 0, ptr %5, align 4
  %6 = getelementptr i8, ptr %2, i64 4
  %.val1518 = load i32, ptr %6, align 4
  %7 = icmp sgt i32 %.val1518, 0
  br i1 %7, label %.lr.ph, label %.critedge

.lr.ph:                                           ; preds = %4
  %8 = getelementptr i8, ptr %0, i64 104
  %.val = load ptr, ptr %8, align 8
  %9 = getelementptr i8, ptr %.val, i64 8
  %.val.val = load ptr, ptr %9, align 8
  %10 = sext i32 %1 to i64
  %11 = getelementptr inbounds ptr, ptr %.val.val, i64 %10
  %12 = load ptr, ptr %11, align 8
  %13 = getelementptr inbounds nuw i8, ptr %0, i64 8
  %14 = getelementptr i8, ptr %2, i64 8
  %15 = getelementptr i8, ptr %12, i64 328
  %.phi.trans.insert.i = getelementptr inbounds nuw i8, ptr %3, i64 8
  br label %16

16:                                               ; preds = %.lr.ph, %Vec_IntPush.exit
  %indvars.iv = phi i64 [ 0, %.lr.ph ], [ %indvars.iv.next, %Vec_IntPush.exit ]
  %17 = load ptr, ptr %13, align 8
  %18 = getelementptr i8, ptr %17, i64 32
  %.val16 = load ptr, ptr %18, align 8
  %.not.i = icmp eq ptr %.val16, null
  br i1 %.not.i, label %Aig_ManObj.exit, label %19

19:                                               ; preds = %16
  %.val14 = load ptr, ptr %14, align 8
  %20 = getelementptr inbounds nuw i32, ptr %.val14, i64 %indvars.iv
  %21 = load i32, ptr %20, align 4
  %22 = getelementptr i8, ptr %.val16, i64 8
  %.val.i = load ptr, ptr %22, align 8
  %23 = sext i32 %21 to i64
  %24 = getelementptr inbounds ptr, ptr %.val.i, i64 %23
  %25 = load ptr, ptr %24, align 8
  br label %Aig_ManObj.exit

Aig_ManObj.exit:                                  ; preds = %16, %19
  %26 = phi ptr [ %25, %19 ], [ null, %16 ]
  %27 = tail call i32 @Pdr_ObjSatVar(ptr noundef nonnull %0, i32 noundef %1, i32 noundef 3, ptr noundef %26) #8
  %.val17 = load ptr, ptr %15, align 8
  %28 = sext i32 %27 to i64
  %29 = getelementptr inbounds i32, ptr %.val17, i64 %28
  %30 = load i32, ptr %29, align 4
  %31 = icmp eq i32 %30, 1
  %32 = zext i1 %31 to i32
  %33 = load i32, ptr %5, align 4
  %34 = load i32, ptr %3, align 8
  %35 = icmp eq i32 %33, %34
  br i1 %35, label %36, label %.Vec_IntGrow.exit10_crit_edge.i

.Vec_IntGrow.exit10_crit_edge.i:                  ; preds = %Aig_ManObj.exit
  %.pre.i = load ptr, ptr %.phi.trans.insert.i, align 8
  br label %Vec_IntPush.exit

36:                                               ; preds = %Aig_ManObj.exit
  %37 = icmp slt i32 %33, 16
  br i1 %37, label %38, label %45

38:                                               ; preds = %36
  %39 = load ptr, ptr %.phi.trans.insert.i, align 8
  %.not9.i.i = icmp eq ptr %39, null
  br i1 %.not9.i.i, label %42, label %40

40:                                               ; preds = %38
  %41 = tail call dereferenceable_or_null(64) ptr @realloc(ptr noundef nonnull %39, i64 noundef 64) #9
  br label %Vec_IntGrow.exit.i

42:                                               ; preds = %38
  %43 = tail call noalias dereferenceable_or_null(64) ptr @malloc(i64 noundef 64) #10
  br label %Vec_IntGrow.exit.i

Vec_IntGrow.exit.i:                               ; preds = %42, %40
  %44 = phi ptr [ %41, %40 ], [ %43, %42 ]
  store ptr %44, ptr %.phi.trans.insert.i, align 8
  store i32 16, ptr %3, align 8
  br label %Vec_IntPush.exit

45:                                               ; preds = %36
  %46 = shl nuw nsw i32 %33, 1
  %47 = load ptr, ptr %.phi.trans.insert.i, align 8
  %.not9.i9.i = icmp eq ptr %47, null
  %48 = zext nneg i32 %46 to i64
  %49 = shl nuw nsw i64 %48, 2
  br i1 %.not9.i9.i, label %52, label %50

50:                                               ; preds = %45
  %51 = tail call ptr @realloc(ptr noundef nonnull %47, i64 noundef %49) #9
  br label %54

52:                                               ; preds = %45
  %53 = tail call noalias ptr @malloc(i64 noundef %49) #10
  br label %54

54:                                               ; preds = %52, %50
  %55 = phi ptr [ %51, %50 ], [ %53, %52 ]
  store ptr %55, ptr %.phi.trans.insert.i, align 8
  store i32 %46, ptr %3, align 8
  br label %Vec_IntPush.exit

Vec_IntPush.exit:                                 ; preds = %.Vec_IntGrow.exit10_crit_edge.i, %Vec_IntGrow.exit.i, %54
  %56 = phi ptr [ %.pre.i, %.Vec_IntGrow.exit10_crit_edge.i ], [ %55, %54 ], [ %44, %Vec_IntGrow.exit.i ]
  %57 = load i32, ptr %5, align 4
  %58 = add nsw i32 %57, 1
  store i32 %58, ptr %5, align 4
  %59 = sext i32 %57 to i64
  %60 = getelementptr inbounds i32, ptr %56, i64 %59
  store i32 %32, ptr %60, align 4
  %indvars.iv.next = add nuw nsw i64 %indvars.iv, 1
  %.val15 = load i32, ptr %6, align 4
  %61 = sext i32 %.val15 to i64
  %62 = icmp slt i64 %indvars.iv.next, %61
  br i1 %62, label %16, label %.critedge, !llvm.loop !12

.critedge:                                        ; preds = %Vec_IntPush.exit, %4
  ret void
}